; Function Attrs: mustprogress nofree norecurse nosync nounwind willreturn memory(write, argmem: readwrite, inaccessiblemem: none) uwtable
define hidden noundef signext i8 @lxb_encoding_encode_utf_16be_single(ptr nocapture noundef readnone %0, ptr nocapture noundef %1, ptr noundef readnone %2, i32 noundef %3) local_unnamed_addr #4 {
  %5 = load ptr, ptr %1, align 8
  %6 = getelementptr inbounds i8, ptr %5, i64 2
  %7 = icmp ugt ptr %6, %2
  br i1 %7, label %lxb_encoding_encode_utf_16_single.exit, label %8

8:                                                ; preds = %4
  %9 = icmp ult i32 %3, 65536
  br i1 %9, label %10, label %17

10:                                               ; preds = %8
  %11 = lshr i32 %3, 8
  %12 = trunc i32 %11 to i8
  %13 = getelementptr inbounds i8, ptr %5, i64 1
  store ptr %13, ptr %1, align 8
  store i8 %12, ptr %5, align 1
  %14 = trunc i32 %3 to i8
  %15 = load ptr, ptr %1, align 8
  %16 = getelementptr inbounds i8, ptr %15, i64 1
  store ptr %16, ptr %1, align 8
  store i8 %14, ptr %15, align 1
  br label %lxb_encoding_encode_utf_16_single.exit

17:                                               ; preds = %8
  %18 = getelementptr inbounds i8, ptr %5, i64 4
  %19 = icmp ugt ptr %18, %2
  br i1 %19, label %lxb_encoding_encode_utf_16_single.exit, label %20

20:                                               ; preds = %17
  %21 = add i32 %3, -65536
  %22 = lshr i32 %21, 10
  %23 = lshr i32 %21, 18
  %24 = trunc i32 %23 to i8
  %25 = or i8 %24, -40
  %26 = getelementptr inbounds i8, ptr %5, i64 1
  store ptr %26, ptr %1, align 8
  store i8 %25, ptr %5, align 1
  %27 = trunc i32 %22 to i8
  %28 = load ptr, ptr %1, align 8
  %29 = getelementptr inbounds i8, ptr %28, i64 1
  store ptr %29, ptr %1, align 8
  store i8 %27, ptr %28, align 1
  %30 = lshr i32 %3, 8
  %31 = trunc i32 %30 to i8
  %32 = and i8 %31, 3
  %33 = or disjoint i8 %32, -36
  %34 = load ptr, ptr %1, align 8
  %35 = getelementptr inbounds i8, ptr %34, i64 1
  store ptr %35, ptr %1, align 8
  store i8 %33, ptr %34, align 1
  %36 = trunc i32 %3 to i8
  %37 = load ptr, ptr %1, align 8
  %38 = getelementptr inbounds i8, ptr %37, i64 1
  store ptr %38, ptr %1, align 8
  store i8 %36, ptr %37, align 1
  br label %lxb_encoding_encode_utf_16_single.exit

lxb_encoding_encode_utf_16_single.exit:           ; preds = %4, %10, %17, %20
  %.0.i = phi i8 [ -2, %4 ], [ -2, %17 ], [ 2, %10 ], [ 4, %20 ]
  ret i8 %.0.i
}